; Function Attrs: mustprogress nounwind uwtable
define internal void @"_ZNSt17_Function_handlerIFvRN4llvm12LiveInterval8SubRangeEEZNS0_16LiveIntervalCalc9calculateERS1_bE3$_0E9_M_invokeERKSt9_Any_dataS3_"(ptr noundef nonnull readonly align 8 captures(none) dereferenceable(16) %0, ptr noundef nonnull align 8 dereferenceable(120) %1) #1 align 2 {
  %.val = load ptr, ptr %0, align 8
  %3 = load ptr, ptr %.val, align 8
  %4 = load i32, ptr %3, align 8
  %5 = and i32 %4, 16777216
  %.not.i.i.i = icmp eq i32 %5, 0
  br i1 %.not.i.i.i, label %"_ZSt10__invoke_rIvRZN4llvm16LiveIntervalCalc9calculateERNS0_12LiveIntervalEbE3$_0JRNS2_8SubRangeEEENSt9enable_ifIX16is_invocable_r_vIT_T0_DpT1_EES9_E4typeEOSA_DpOSB_.exit", label %6

6:                                                ; preds = %2
  %7 = getelementptr inbounds nuw i8, ptr %.val, i64 8
  %8 = load ptr, ptr %7, align 8
  %9 = getelementptr inbounds nuw i8, ptr %.val, i64 16
  %10 = load ptr, ptr %9, align 8
  %11 = getelementptr i8, ptr %8, i64 120
  %.val.i.i.i = load ptr, ptr %11, align 8
  %12 = getelementptr i8, ptr %8, i64 136
  %.val2.i.i.i = load i32, ptr %12, align 8
  %13 = getelementptr i8, ptr %3, i64 8
  %.val4.i.i.i = load ptr, ptr %13, align 8
  tail call fastcc void @_ZL13createDeadDefRN4llvm11SlotIndexesERNS_20BumpPtrAllocatorImplINS_15MallocAllocatorELm4096ELm4096ELm128EEERNS_9LiveRangeERKNS_14MachineOperandE(ptr %.val.i.i.i, i32 %.val2.i.i.i, ptr noundef nonnull align 8 dereferenceable(96) %10, ptr noundef nonnull align 8 dereferenceable(120) %1, i32 %4, ptr %.val4.i.i.i)
  br label %"_ZSt10__invoke_rIvRZN4llvm16LiveIntervalCalc9calculateERNS0_12LiveIntervalEbE3$_0JRNS2_8SubRangeEEENSt9enable_ifIX16is_invocable_r_vIT_T0_DpT1_EES9_E4typeEOSA_DpOSB_.exit"

"_ZSt10__invoke_rIvRZN4llvm16LiveIntervalCalc9calculateERNS0_12LiveIntervalEbE3$_0JRNS2_8SubRangeEEENSt9enable_ifIX16is_invocable_r_vIT_T0_DpT1_EES9_E4typeEOSA_DpOSB_.exit": ; preds = %2, %6
  ret void
}